; Function Attrs: inlinehint nounwind sspstrong uwtable
define internal fastcc i64 @f_rational_new_bang1(i64 noundef %0, i64 noundef %1) unnamed_addr #4 {
  %3 = tail call align 8 ptr @llvm.threadlocal.address.p0(ptr align 8 @ruby_current_ec)
  %4 = load ptr, ptr %3, align 8, !tbaa !25
  %5 = tail call i64 @rb_wb_protected_newobj_of(ptr noundef %4, i64 noundef %0, i64 noundef 15, i64 noundef 32) #17
  %6 = inttoptr i64 %5 to ptr
  %7 = getelementptr inbounds nuw i8, ptr %6, i64 16
  store i64 %1, ptr %7, align 8, !tbaa !18
  %8 = icmp eq i64 %1, 0
  %9 = and i64 %1, 7
  %10 = icmp ne i64 %9, 0
  %11 = or i1 %8, %10
  br i1 %11, label %nurat_s_new_internal.exit, label %12

12:                                               ; preds = %2
  tail call void @rb_gc_writebarrier(i64 noundef %5, i64 noundef %1) #17
  br label %nurat_s_new_internal.exit

nurat_s_new_internal.exit:                        ; preds = %2, %12
  %13 = getelementptr inbounds nuw i8, ptr %6, i64 24
  store i64 3, ptr %13, align 8, !tbaa !18
  tail call void @rb_obj_freeze_inline(i64 noundef %5) #17
  ret i64 %5
}